(dp1
I1
(dp2
S'index_sequence'
p3
VGTCTTAAC
p4
sVsequence
p5
VGTTAAGAC
p6
ssI2
(dp7
g3
VAACTTAGA
p8
sVsequence
p9
VTCTAAGTT
p10
ssI3
(dp11
g3
VAATGTACA
p12
sVsequence
p13
VTGTACATT
p14
ssI4
(dp15
g3
VGCGGTATT
p16
sVsequence
p17
VAATACCGC
p18
ssI5
(dp19
g3
VCATAGACA
p20
sVsequence
p21
VTGTCTATG
p22
ssI6
(dp23
g3
VAACAGTGA
p24
sVsequence
p25
VTCACTGTT
p26
ssI7
(dp27
g3
VGAATACAA
p28
sVsequence
p29
VTTGTATTC
p30
ssI8
(dp31
g3
VGTTAGTCT
p32
sVsequence
p33
VAGACTAAC
p34
ssI9
(dp35
g3
VTTGACAAT
p36
sVsequence
p37
VATTGTCAA
p38
ssI10
(dp39
g3
VTGTAGAAC
p40
sVsequence
p41
VGTTCTACA
p42
ssI11
(dp43
g3
VCGAATGAA
p44
sVsequence
p45
VTTCATTCG
p46
ssI12
(dp47
g3
VTGACGCTT
p48
sVsequence
p49
VAAGCGTCA
p50
ssI13
(dp51
g3
VATCCTACG
p52
sVsequence
p53
VCGTAGGAT
p54
ssI14
(dp55
g3
VCGCTAACT
p56
sVsequence
p57
VAGTTAGCG
p58
ssI15
(dp59
g3
VAGACGTTC
p60
sVsequence
p61
VGAACGTCT
p62
ssV010
p63
g39
sV011
p64
g43
sV012
p65
g47
sV013
p66
g51
sV014
p67
g55
sV015
p68
g59
sV016
p69
(dp70
g3
VAGTGTTCT
p71
sVsequence
p72
VAGAACACT
p73
ssV017
p74
(dp75
g3
VTGCCAACA
p76
sVsequence
p77
VTGTTGGCA
p78
ssV018
p79
(dp80
g3
VTATTAGCC
p81
sVsequence
p82
VGGCTAATA
p83
ssV019
p84
(dp85
g3
VATTCTAGC
p86
sVsequence
p87
VGCTAGAAT
p88
ssI26
(dp89
g3
VGAGCATTA
p90
sVsequence
p91
VTAATGCTC
p92
ssI27
(dp93
g3
VTCAACAAG
p94
sVsequence
p95
VCTTGTTGA
p96
ssI28
(dp97
g3
VCTTGTATC
p98
sVsequence
p99
VGATACAAG
p100
ssS'93'
p101
(dp102
g3
VAATCGGCA
p103
sVsequence
p104
VTGCCGATT
p105
ssI30
(dp106
g3
VCTATCCAG
p107
sVsequence
p108
VCTGGATAG
p109
ssI31
(dp110
g3
VGCTGATGA
p111
sVsequence
p112
VTCATCAGC
p113
ssI32
(dp114
g3
VCGGTATAA
p115
sVsequence
p116
VTTATACCG
p117
ssI33
(dp118
g3
VGAATCAGC
p119
sVsequence
p120
VGCTGATTC
p121
ssI34
(dp122
g3
VGGCCTTAT
p123
sVsequence
p124
VATAAGGCC
p125
ssS'92'
p126
(dp127
g3
VAATTCGAC
p128
sVsequence
p129
VGTCGAATT
p130
ssI36
(dp131
g3
VTGTTGCTA
p132
sVsequence
p133
VTAGCAACA
p134
ssI37
(dp135
g3
VATTACTTG
p136
sVsequence
p137
VCAAGTAAT
p138
ssI38
(dp139
g3
VCATCATGA
p140
sVsequence
p141
VTCATGATG
p142
ssI39
(dp143
g3
VAAGAGCTA
p144
sVsequence
p145
VTAGCTCTT
p146
ssI40
(dp147
g3
VCATGTAGT
p148
sVsequence
p149
VACTACATG
p150
ssS'95'
p151
(dp152
g3
VCCTACTAG
p153
sVsequence
p154
VCTAGTAGG
p155
ssI42
(dp156
g3
VTGGAAGTC
p157
sVsequence
p158
VGACTTCCA
p159
ssI43
(dp160
g3
VCGAGAATA
p161
sVsequence
p162
VTATTCTCG
p163
ssI44
(dp164
g3
VATCTAGTG
p165
sVsequence
p166
VCACTAGAT
p167
ssI45
(dp168
g3
VATGCGAAG
p169
sVsequence
p170
VCTTCGCAT
p171
ssI46
(dp172
g3
VATCGCTAG
p173
sVsequence
p174
VCTAGCGAT
p175
ssS'94'
p176
(dp177
g3
VGCATTAGT
p178
sVsequence
p179
VACTAATGC
p180
ssV344
p181
(dp182
g3
VACTCGTCT
p183
sVsequence
p184
VAGACGAGT
p185
ssV345
p186
(dp187
g3
VAATACGGT
p188
sVsequence
p189
VACCGTATT
p190
ssV346
p191
(dp192
g3
VCTGTTAGC
p193
sVsequence
p194
VGCTAACAG
p195
ssV347
p196
(dp197
g3
VCAGCATAG
p198
sVsequence
p199
VCTATGCTG
p200
ssV340
p201
(dp202
g3
VACGGTCAA
p203
sVsequence
p204
VTTGACCGT
p205
ssV341
p206
(dp207
g3
VCACATTGT
p208
sVsequence
p209
VACAATGTG
p210
ssV342
p211
(dp212
g3
VAGGAACTT
p213
sVsequence
p214
VAAGTTCCT
p215
ssV343
p216
(dp217
g3
VTTATGGCG
p218
sVsequence
p219
VCGCCATAA
p220
ssI56
(dp221
g3
VGAGTCGAA
p222
sVsequence
p223
VTTCGACTC
p224
ssI57
(dp225
g3
VACCATTCG
p226
sVsequence
p227
VCGAATGGT
p228
ssI58
(dp229
g3
VGTACACTA
p230
sVsequence
p231
VTAGTGTAC
p232
ssI59
(dp233
g3
VTCATGCGT
p234
sVsequence
p235
VACGCATGA
p236
ssV348
p237
(dp238
g3
VCGAGTTGA
p239
sVsequence
p240
VTCAACTCG
p241
ssV349
p242
(dp243
g3
VTTCTTGAA
p244
sVsequence
p245
VTTCAAGAA
p246
ssI62
(dp247
g3
VTGCTTCCA
p248
sVsequence
p249
VTGGAAGCA
p250
ssI63
(dp251
g3
VTGAGCATC
p252
sVsequence
p253
VGATGCTCA
p254
ssI64
(dp255
g3
VTTCAGGCT
p256
sVsequence
p257
VAGCCTGAA
p258
ssI65
(dp259
g3
VTACTGGTG
p260
sVsequence
p261
VCACCAGTA
p262
ssI66
(dp263
g3
VGGTGTAAC
p264
sVsequence
p265
VGTTACACC
p266
ssI67
(dp267
g3
VACTAACGC
p268
sVsequence
p269
VGCGTTAGT
p270
ssI68
(dp271
g3
VGAACGTCA
p272
sVsequence
p273
VTGACGTTC
p274
ssI69
(dp275
g3
VTACGCCTA
p276
sVsequence
p277
VTAGGCGTA
p278
ssI70
(dp279
g3
VGCTCACTT
p280
sVsequence
p281
VAAGTGAGC
p282
ssI71
(dp283
g3
VTATTCCGG
p284
sVsequence
p285
VCCGGAATA
p286
ssI72
(dp287
g3
VTGCCTATT
p288
sVsequence
p289
VAATAGGCA
p290
ssI73
(dp291
g3
VGACCTGAA
p292
sVsequence
p293
VTTCAGGTC
p294
ssI74
(dp295
g3
VAGCGATTA
p296
sVsequence
p297
VTAATCGCT
p298
ssI75
(dp299
g3
VCACCTAAG
p300
sVsequence
p301
VCTTAGGTG
p302
ssI76
(dp303
g3
VGAGATCAA
p304
sVsequence
p305
VTTGATCTC
p306
ssI77
(dp307
g3
VCAGTAAGA
p308
sVsequence
p309
VTCTTACTG
p310
ssI78
(dp311
g3
VGTGTACTC
p312
sVsequence
p313
VGAGTACAC
p314
ssI79
(dp315
g3
VTGTAACGT
p316
sVsequence
p317
VACGTTACA
p318
ssI80
(dp319
g3
VGCTTACCA
p320
sVsequence
p321
VTGGTAAGC
p322
ssI81
(dp323
g3
VGTGCTATC
p324
sVsequence
p325
VGATAGCAC
p326
ssI82
(dp327
g3
VCCTAAGTC
p328
sVsequence
p329
VGACTTAGG
p330
ssI83
(dp331
g3
VTAACGACT
p332
sVsequence
p333
VAGTCGTTA
p334
ssI139
(dp335
g3
VTGTCAGTA
p336
sVsequence
p337
VTACTGACA
p338
ssI85
(dp339
g3
VTCTACTGA
p340
sVsequence
p341
VTCAGTAGA
p342
ssI86
(dp343
g3
VAGACACAT
p344
sVsequence
p345
VATGTGTCT
p346
ssI87
(dp347
g3
VATATTCTG
p348
sVsequence
p349
VCAGAATAT
p350
ssI88
(dp351
g3
VCAGACTTA
p352
sVsequence
p353
VTAAGTCTG
p354
ssI89
(dp355
g3
VATGTCGAT
p356
sVsequence
p357
VATCGACAT
p358
ssI90
(dp359
g3
VACAGCTGT
p360
sVsequence
p361
VACAGCTGT
p362
ssI91
(dp363
g3
VCTTGTGAT
p364
sVsequence
p365
VATCACAAG
p366
ssI92
g127
sI93
g102
sI55
(dp367
g3
VCAACAGCT
p368
sVsequence
p369
VAGCTGTTG
p370
ssI95
g152
sI96
(dp371
g3
VTGGCTTAA
p372
sVsequence
p373
VTTAAGCCA
p374
ssI16
g70
sI98
(dp375
g3
VTCCGAGAA
p376
sVsequence
p377
VTTCTCGGA
p378
ssI99
(dp379
g3
VCTGGATCT
p380
sVsequence
p381
VAGATCCAG
p382
ssI100
(dp383
g3
VCAACGTGT
p384
sVsequence
p385
VACACGTTG
p386
ssI101
(dp387
g3
VTCAGATCG
p388
sVsequence
p389
VCGATCTGA
p390
ssI102
(dp391
g3
VATAGGTAC
p392
sVsequence
p393
VGTACCTAT
p394
ssI17
g75
sI104
(dp395
g3
VAGATCATG
p396
sVsequence
p397
VCATGATCT
p398
ssI105
(dp399
g3
VGTGTTGCA
p400
sVsequence
p401
VTGCAACAC
p402
ssI106
(dp403
g3
VATGCTTGG
p404
sVsequence
p405
VCCAAGCAT
p406
ssI107
(dp407
g3
VAAGGTTCC
p408
sVsequence
p409
VGGAACCTT
p410
ssI108
(dp411
g3
VAAGACGTG
p412
sVsequence
p413
VCACGTCTT
p414
ssI18
g80
sI110
(dp415
g3
VCCATCTTG
p416
sVsequence
p417
VCAAGATGG
p418
ssI111
(dp419
g3
VTCCAGCAA
p420
sVsequence
p421
VTTGCTGGA
p422
ssI112
(dp423
g3
VCTCGATTC
p424
sVsequence
p425
VGAATCGAG
p426
ssI113
(dp427
g3
VCTGTCATT
p428
sVsequence
p429
VAATGACAG
p430
ssI140
(dp431
g3
VGTTCGTAG
p432
sVsequence
p433
VCTACGAAC
p434
ssI19
g85
sI116
(dp435
g3
VTTAACTGT
p436
sVsequence
p437
VACAGTTAA
p438
ssI117
(dp439
g3
VATTCAATG
p440
sVsequence
p441
VCATTGAAT
p442
ssV298
p443
(dp444
g3
VAACTCGTA
p445
sVsequence
p446
VTACGAGTT
p447
ssV299
p448
(dp449
g3
VCTATGTGC
p450
sVsequence
p451
VGCACATAG
p452
ssV296
p453
(dp454
g3
VGGTAGTTC
p455
sVsequence
p456
VGAACTACC
p457
ssV297
p458
(dp459
g3
VCGAATACC
p460
sVsequence
p461
VGGTATTCG
p462
ssV294
p463
(dp464
g3
VATTCGGAT
p465
sVsequence
p466
VATCCGAAT
p467
ssV295
p468
(dp469
g3
VTCATAGCA
p470
sVsequence
p471
VTGCTATGA
p472
ssV292
p473
(dp474
g3
VGTATCTGA
p475
sVsequence
p476
VTCAGATAC
p477
ssV293
p478
(dp479
g3
VATCGGCTA
p480
sVsequence
p481
VTAGCCGAT
p482
ssV290
p483
(dp484
g3
VTACACGCA
p485
sVsequence
p486
VTGCGTGTA
p487
ssV291
p488
(dp489
g3
VGGATAACG
p490
sVsequence
p491
VCGTTATCC
p492
ssI128
(dp493
g3
VGCACTTAA
p494
sVsequence
p495
VTTAAGTGC
p496
ssI129
(dp497
g3
VAAGCCTGT
p498
sVsequence
p499
VACAGGCTT
p500
ssI130
(dp501
g3
VTGACCGAT
p502
sVsequence
p503
VATCGGTCA
p504
ssI131
(dp505
g3
VATGTGGTC
p506
sVsequence
p507
VGACCACAT
p508
ssV199
p509
(dp510
g3
VATGGTGAC
p511
sVsequence
p512
VGTCACCAT
p513
ssV198
p514
(dp515
g3
VACTATCTG
p516
sVsequence
p517
VCAGATAGT
p518
ssI134
(dp519
g3
VTAGTCTCC
p520
sVsequence
p521
VGGAGACTA
p522
ssI135
(dp523
g3
VACATGACT
p524
sVsequence
p525
VAGTCATGT
p526
ssV195
p527
(dp528
g3
VTGAGAGCT
p529
sVsequence
p530
VAGCTCTCA
p531
ssV194
p532
(dp533
g3
VTGTTCACC
p534
sVsequence
p535
VGGTGAACA
p536
ssV197
p537
(dp538
g3
VATAAGCGT
p539
sVsequence
p540
VACGCTTAT
p541
ssV196
p542
(dp543
g3
VGTCACTCA
p544
sVsequence
p545
VTGAGTGAC
p546
ssV191
p547
(dp548
g3
VAGAGCGTT
p549
sVsequence
p550
VAACGCTCT
p551
ssV190
p552
(dp553
g3
VCATTGATG
p554
sVsequence
p555
VCATCAATG
p556
ssV193
p557
(dp558
g3
VTGCTAGAG
p559
sVsequence
p560
VCTCTAGCA
p561
ssV192
p562
(dp563
g3
VAGGCGTAT
p564
sVsequence
p565
VATACGCCT
p566
ssV270
p567
(dp568
g3
VTTACGTAT
p569
sVsequence
p570
VATACGTAA
p571
ssV271
p572
(dp573
g3
VATCTTCGT
p574
sVsequence
p575
VACGAAGAT
p576
ssV272
p577
(dp578
g3
VTATGACGC
p579
sVsequence
p580
VGCGTCATA
p581
ssV273
p582
(dp583
g3
VTTCCGAAC
p584
sVsequence
p585
VGTTCGGAA
p586
ssV274
p587
(dp588
g3
VGGCACAAT
p589
sVsequence
p590
VATTGTGCC
p591
ssV275
p592
(dp593
g3
VTTGATCCA
p594
sVsequence
p595
VTGGATCAA
p596
ssV276
p597
(dp598
g3
VCAGTTGTA
p599
sVsequence
p600
VTACAACTG
p601
ssV277
p602
(dp603
g3
VACGTCTTC
p604
sVsequence
p605
VGAAGACGT
p606
ssV278
p607
(dp608
g3
VTATCGTCG
p609
sVsequence
p610
VCGACGATA
p611
ssV279
p612
(dp613
g3
VCGGAAGAT
p614
sVsequence
p615
VATCTTCCG
p616
ssI154
(dp617
g3
VAGAAGTCT
p618
sVsequence
p619
VAGACTTCT
p620
ssI367
(dp621
g3
VTTACGAGG
p622
sVsequence
p623
VCCTCGTAA
p624
ssI156
(dp625
g3
VTATGCTCA
p626
sVsequence
p627
VTGAGCATA
p628
ssI157
(dp629
g3
VTTGCCTTA
p630
sVsequence
p631
VTAAGGCAA
p632
ssI158
(dp633
g3
VTTCATTGA
p634
sVsequence
p635
VTCAATGAA
p636
ssI159
(dp637
g3
VTGTCTGAC
p638
sVsequence
p639
VGTCAGACA
p640
ssI160
(dp641
g3
VGACAGATG
p642
sVsequence
p643
VCATCTGTC
p644
ssI161
(dp645
g3
VAATCCACG
p646
sVsequence
p647
VCGTGGATT
p648
ssI162
(dp649
g3
VAGACATGA
p650
sVsequence
p651
VTCATGTCT
p652
ssI163
(dp653
g3
VAACGAGAT
p654
sVsequence
p655
VATCTCGTT
p656
ssI164
(dp657
g3
VGGAGTACT
p658
sVsequence
p659
VAGTACTCC
p660
ssI165
(dp661
g3
VAGTTCCGA
p662
sVsequence
p663
VTCGGAACT
p664
ssI166
(dp665
g3
VAATTGCTT
p666
sVsequence
p667
VAAGCAATT
p668
ssI167
(dp669
g3
VGTCAAGAC
p670
sVsequence
p671
VGTCTTGAC
p672
ssI168
(dp673
g3
VGACGAAGT
p674
sVsequence
p675
VACTTCGTC
p676
ssI169
(dp677
g3
VTAACTGCA
p678
sVsequence
p679
VTGCAGTTA
p680
ssI170
(dp681
g3
VTCGTTACG
p682
sVsequence
p683
VCGTAACGA
p684
ssI171
(dp685
g3
VGGTGCTAA
p686
sVsequence
p687
VTTAGCACC
p688
ssI172
(dp689
g3
VAAGATCGC
p690
sVsequence
p691
VGCGATCTT
p692
ssI173
(dp693
g3
VCATATGCG
p694
sVsequence
p695
VCGCATATG
p696
ssI174
(dp697
g3
VTACCTGGT
p698
sVsequence
p699
VACCAGGTA
p700
ssI29
(dp701
g3
VCGCTGTAT
p702
sVsequence
p703
VATACAGCG
p704
ssI176
(dp705
g3
VACATTGTA
p706
sVsequence
p707
VTACAATGT
p708
ssI177
(dp709
g3
VCTGCTTAT
p710
sVsequence
p711
VATAAGCAG
p712
ssI178
(dp713
g3
VCTCGTTCA
p714
sVsequence
p715
VTGAACGAG
p716
ssI179
(dp717
g3
VTAGGAATC
p718
sVsequence
p719
VGATTCCTA
p720
ssI180
(dp721
g3
VTCACTCTG
p722
sVsequence
p723
VCAGAGTGA
p724
ssI181
(dp725
g3
VGGTTATCT
p726
sVsequence
p727
VAGATAACC
p728
ssI182
(dp729
g3
VAGTTACTC
p730
sVsequence
p731
VGAGTAACT
p732
ssI183
(dp733
g3
VCCAGGTAT
p734
sVsequence
p735
VATACCTGG
p736
ssI184
(dp737
g3
VCAACTAGC
p738
sVsequence
p739
VGCTAGTTG
p740
ssI185
(dp741
g3
VTCGCACTA
p742
sVsequence
p743
VTAGTGCGA
p744
ssI186
(dp745
g3
VGTCAGAGT
p746
sVsequence
p747
VACTCTGAC
p748
ssI187
(dp749
g3
VCATTAGAG
p750
sVsequence
p751
VCTCTAATG
p752
ssI188
(dp753
g3
VCGTCTATG
p754
sVsequence
p755
VCATAGACG
p756
ssI189
(dp757
g3
VTCAGTGGT
p758
sVsequence
p759
VACCACTGA
p760
ssI190
g553
sI191
g548
sI192
g563
sI193
g558
sI194
g533
sI195
g528
sI196
g543
sI197
g538
sI198
g515
sI199
g510
sI200
(dp761
g3
VTTCGACCA
p762
sVsequence
p763
VTGGTCGAA
p764
ssI201
(dp765
g3
VTATATTGC
p766
sVsequence
p767
VGCAATATA
p768
ssI202
(dp769
g3
VTGCATGTG
p770
sVsequence
p771
VCACATGCA
p772
ssI203
(dp773
g3
VTCGAAGGA
p774
sVsequence
p775
VTCCTTCGA
p776
ssI204
(dp777
g3
VTACATCAG
p778
sVsequence
p779
VCTGATGTA
p780
ssI205
(dp781
g3
VTTGCAGTG
p782
sVsequence
p783
VCACTGCAA
p784
ssI206
(dp785
g3
VTTCTCCGA
p786
sVsequence
p787
VTCGGAGAA
p788
ssI207
(dp789
g3
VACATACCG
p790
sVsequence
p791
VCGGTATGT
p792
ssI208
(dp793
g3
VAAGCTCAG
p794
sVsequence
p795
VCTGAGCTT
p796
ssI209
(dp797
g3
VGTACCAAG
p798
sVsequence
p799
VCTTGGTAC
p800
ssV108
p801
g411
sV109
p802
(dp803
g3
VACTGACCT
p804
sVsequence
p805
VAGGTCAGT
p806
ssI212
(dp807
g3
VTTGAGACC
p808
sVsequence
p809
VGGTCTCAA
p810
ssI213
(dp811
g3
VATTAGCCA
p812
sVsequence
p813
VTGGCTAAT
p814
ssI214
(dp815
g3
VGATCCTCT
p816
sVsequence
p817
VAGAGGATC
p818
ssI215
(dp819
g3
VTGTATTCG
p820
sVsequence
p821
VCGAATACA
p822
ssV102
p823
g391
sV103
p824
(dp825
g3
VGAGATACG
p826
sVsequence
p827
VCGTATCTC
p828
ssV100
p829
g383
sV101
p830
g387
sV106
p831
g403
sV107
p832
g407
sV104
p833
g395
sV105
p834
g399
sI224
(dp835
g3
VTCCATAGC
p836
sVsequence
p837
VGCTATGGA
p838
ssI225
(dp839
g3
VGGTCAAGA
p840
sVsequence
p841
VTCTTGACC
p842
ssS'39'
p843
g143
sS'38'
p844
g139
sI228
(dp845
g3
VCAGGAGTT
p846
sVsequence
p847
VAACTCCTG
p848
ssI229
(dp849
g3
VCCTTAAGT
p850
sVsequence
p851
VACTTAAGG
p852
ssI230
(dp853
g3
VATGCAAGA
p854
sVsequence
p855
VTCTTGCAT
p856
ssI231
(dp857
g3
VGAACAGTC
p858
sVsequence
p859
VGACTGTTC
p860
ssI232
(dp861
g3
VAGGTCAGT
p862
sVsequence
p863
VACTGACCT
p864
ssI233
(dp865
g3
VTGGACACA
p866
sVsequence
p867
VTGTGTCCA
p868
ssI234
(dp869
g3
VATGACAGG
p870
sVsequence
p871
VCCTGTCAT
p872
ssI235
(dp873
g3
VAAGTACAT
p874
sVsequence
p875
VATGTACTT
p876
ssI236
(dp877
g3
VGATTATTC
p878
sVsequence
p879
VGAATAATC
p880
ssI237
(dp881
g3
VGCATAGAC
p882
sVsequence
p883
VGTCTATGC
p884
ssI238
(dp885
g3
VTTCTAAGG
p886
sVsequence
p887
VCCTTAGAA
p888
ssI239
(dp889
g3
VGCGAATTC
p890
sVsequence
p891
VGAATTCGC
p892
ssI240
(dp893
g3
VAGGACTAG
p894
sVsequence
p895
VCTAGTCCT
p896
ssI241
(dp897
g3
VACCTCTGA
p898
sVsequence
p899
VTCAGAGGT
p900
ssI242
(dp901
g3
VAGAATGTC
p902
sVsequence
p903
VGACATTCT
p904
ssI243
(dp905
g3
VCGTGTTAG
p906
sVsequence
p907
VCTAACACG
p908
ssI244
(dp909
g3
VGATCACAC
p910
sVsequence
p911
VGTGTGATC
p912
ssI245
(dp913
g3
VGTGAACAG
p914
sVsequence
p915
VCTGTTCAC
p916
ssI246
(dp917
g3
VAACTGACC
p918
sVsequence
p919
VGGTCAGTT
p920
ssI247
(dp921
g3
VGATCGGTT
p922
sVsequence
p923
VAACCGATC
p924
ssI248
(dp925
g3
VCTTAGCTG
p926
sVsequence
p927
VCAGCTAAG
p928
ssI249
(dp929
g3
VAATGGATC
p930
sVsequence
p931
VGATCCATT
p932
ssI250
(dp933
g3
VGTATCGTG
p934
sVsequence
p935
VCACGATAC
p936
ssI251
(dp937
g3
VTCGCATGT
p938
sVsequence
p939
VACATGCGA
p940
ssI252
(dp941
g3
VACATAAGC
p942
sVsequence
p943
VGCTTATGT
p944
ssI253
(dp945
g3
VTCCTGTCA
p946
sVsequence
p947
VTGACAGGA
p948
ssI254
(dp949
g3
VCGTATCTT
p950
sVsequence
p951
VAAGATACG
p952
ssI255
(dp953
g3
VAGTCCATC
p954
sVsequence
p955
VGATGGACT
p956
ssI256
(dp957
g3
VCGAACTTC
p958
sVsequence
p959
VGAAGTTCG
p960
ssI257
(dp961
g3
VGTTGATCG
p962
sVsequence
p963
VCGATCAAC
p964
ssI258
(dp965
g3
VTTGTAGGC
p966
sVsequence
p967
VGCCTACAA
p968
ssI259
(dp969
g3
VGATCTAAT
p970
sVsequence
p971
VATTAGATC
p972
ssV339
p973
(dp974
g3
VAATCAAGT
p975
sVsequence
p976
VACTTGATT
p977
ssV338
p978
(dp979
g3
VGCACAATG
p980
sVsequence
p981
VCATTGTGC
p982
ssI262
(dp983
g3
VGATTCTAG
p984
sVsequence
p985
VCTAGAATC
p986
ssI263
(dp987
g3
VCGAACCAT
p988
sVsequence
p989
VATGGTTCG
p990
ssV335
p991
(dp992
g3
VAACTCCAG
p993
sVsequence
p994
VCTGGAGTT
p995
ssV334
p996
(dp997
g3
VCAATTCCG
p998
sVsequence
p999
VCGGAATTG
p1000
ssV337
p1001
(dp1002
g3
VGACTGTTA
p1003
sVsequence
p1004
VTAACAGTC
p1005
ssV336
p1006
(dp1007
g3
VTGATGGAC
p1008
sVsequence
p1009
VGTCCATCA
p1010
ssV331
p1011
(dp1012
g3
VAGTCTCGT
p1013
sVsequence
p1014
VACGAGACT
p1015
ssV330
p1016
(dp1017
g3
VTGACTTGT
p1018
sVsequence
p1019
VACAAGTCA
p1020
ssV333
p1021
(dp1022
g3
VGCTTGAAT
p1023
sVsequence
p1024
VATTCAAGC
p1025
ssV332
p1026
(dp1027
g3
VGTACTCAT
p1028
sVsequence
p1029
VATGAGTAC
p1030
ssI272
g578
sI273
g583
sI274
g588
sI275
g593
sV058
p1031
g229
sV059
p1032
g233
sI278
g608
sI279
g613
sV054
p1033
(dp1034
g3
VATCGGAAT
p1035
sVsequence
p1036
VATTCCGAT
p1037
ssV055
p1038
g367
sV056
p1039
g221
sV057
p1040
g225
sV050
p1041
(dp1042
g3
VCTGAACGT
p1043
sVsequence
p1044
VACGTTCAG
p1045
ssV051
p1046
(dp1047
g3
VATATAGCT
p1048
sVsequence
p1049
VAGCTATAT
p1050
ssV052
p1051
(dp1052
g3
VTTCGCACT
p1053
sVsequence
p1054
VAGTGCGAA
p1055
ssV053
p1056
(dp1057
g3
VTACCATTG
p1058
sVsequence
p1059
VCAATGGTA
p1060
ssI288
(dp1061
g3
VTATCTCGA
p1062
sVsequence
p1063
VTCGAGATA
p1064
ssI289
(dp1065
g3
VCGCTGATA
p1066
sVsequence
p1067
VTATCAGCG
p1068
ssI290
g484
sI291
g489
sI292
g474
sI293
g479
sI294
g464
sI295
g469
sI296
g454
sI297
g459
sI298
g444
sI299
g449
sI300
(dp1069
g3
VTATCGCTC
p1070
sVsequence
p1071
VGAGCGATA
p1072
ssI50
g1042
sI302
(dp1073
g3
VGCTGGATA
p1074
sVsequence
p1075
VTATCCAGC
p1076
ssI303
(dp1077
g3
VAACCGATA
p1078
sVsequence
p1079
VTATCGGTT
p1080
ssI304
(dp1081
g3
VTACGCAAG
p1082
sVsequence
p1083
VCTTGCGTA
p1084
ssI305
(dp1085
g3
VGACAATAG
p1086
sVsequence
p1087
VCTATTGTC
p1088
ssI351
(dp1089
g3
VATACTGGT
p1090
sVsequence
p1091
VACCAGTAT
p1092
ssI51
g1047
sI308
(dp1093
g3
VCGTCCAAT
p1094
sVsequence
p1095
VATTGGACG
p1096
ssI309
(dp1097
g3
VGGCAATGT
p1098
sVsequence
p1099
VACATTGCC
p1100
ssI310
(dp1101
g3
VGCAAGTGA
p1102
sVsequence
p1103
VTCACTTGC
p1104
ssI311
(dp1105
g3
VGTCGGTAA
p1106
sVsequence
p1107
VTTACCGAC
p1108
ssI312
(dp1109
g3
VGGTACATG
p1110
sVsequence
p1111
VCATGTACC
p1112
ssI52
g1052
sI314
(dp1113
g3
VGATAATCA
p1114
sVsequence
p1115
VTGATTATC
p1116
ssI315
(dp1117
g3
VATCAGGAG
p1118
sVsequence
p1119
VCTCCTGAT
p1120
ssI316
(dp1121
g3
VCTAGAGGA
p1122
sVsequence
p1123
VTCCTCTAG
p1124
ssI317
(dp1125
g3
VCTGAGTAC
p1126
sVsequence
p1127
VGTACTCAG
p1128
ssI318
(dp1129
g3
VCCTCATTG
p1130
sVsequence
p1131
VCAATGAGG
p1132
ssI53
g1057
sI320
(dp1133
g3
VGGCTATTG
p1134
sVsequence
p1135
VCAATAGCC
p1136
ssI321
(dp1137
g3
VTCTGTAGG
p1138
sVsequence
p1139
VCCTACAGA
p1140
ssI322
(dp1141
g3
VCTACTGTG
p1142
sVsequence
p1143
VCACAGTAG
p1144
ssI323
(dp1145
g3
VTCTCGTTA
p1146
sVsequence
p1147
VTAACGAGA
p1148
ssI324
(dp1149
g3
VTAAGCAGA
p1150
sVsequence
p1151
VTCTGCTTA
p1152
ssI54
g1034
sI326
(dp1153
g3
VATGTATAC
p1154
sVsequence
p1155
VGTATACAT
p1156
ssI327
(dp1157
g3
VTGTGCCAT
p1158
sVsequence
p1159
VATGGCACA
p1160
ssI328
(dp1161
g3
VTTCGAGTT
p1162
sVsequence
p1163
VAACTCGAA
p1164
ssI329
(dp1165
g3
VACCAGATC
p1166
sVsequence
p1167
VGATCTGGT
p1168
ssI330
g1017
sI331
g1012
sI332
g1027
sI333
g1022
sI334
g997
sI335
g992
sI336
g1007
sI337
g1002
sI338
g979
sI339
g974
sI340
g202
sI341
g207
sI342
g212
sI343
g217
sI344
g182
sI345
g187
sI346
g192
sI347
g197
sI348
g238
sI349
g243
sS'97'
p1169
(dp1170
g3
VCGTTATGC
p1171
sVsequence
p1172
VGCATAACG
p1173
ssS'96'
p1174
g371
sI352
(dp1175
g3
VGTACATGG
p1176
sVsequence
p1177
VCCATGTAC
p1178
ssI353
(dp1179
g3
VATTGCGTA
p1180
sVsequence
p1181
VTACGCAAT
p1182
ssI354
(dp1183
g3
VACTATAGA
p1184
sVsequence
p1185
VTCTATAGT
p1186
ssI355
(dp1187
g3
VACTCTGAA
p1188
sVsequence
p1189
VTTCAGAGT
p1190
ssI356
(dp1191
g3
VGACAGGAT
p1192
sVsequence
p1193
VATCCTGTC
p1194
ssI357
(dp1195
g3
VACGTGGAA
p1196
sVsequence
p1197
VTTCCACGT
p1198
ssI358
(dp1199
g3
VCTAAGTTA
p1200
sVsequence
p1201
VTAACTTAG
p1202
ssI359
(dp1203
g3
VTCTAAGAT
p1204
sVsequence
p1205
VATCTTAGA
p1206
ssI360
(dp1207
g3
VCAGGTATG
p1208
sVsequence
p1209
VCATACCTG
p1210
ssI60
(dp1211
g3
VTGTACGAA
p1212
sVsequence
p1213
VTTCGTACA
p1214
ssI362
(dp1215
g3
VTTGGTCAT
p1216
sVsequence
p1217
VATGACCAA
p1218
ssI363
(dp1219
g3
VACCGTATA
p1220
sVsequence
p1221
VTATACGGT
p1222
ssI364
(dp1223
g3
VATAGAACG
p1224
sVsequence
p1225
VCGTTCTAT
p1226
ssI365
(dp1227
g3
VGCTATTCC
p1228
sVsequence
p1229
VGGAATAGC
p1230
ssI366
(dp1231
g3
VTGGTCTGA
p1232
sVsequence
p1233
VTCAGACCA
p1234
ssI61
(dp1235
g3
VTAGCAGAA
p1236
sVsequence
p1237
VTTCTGCTA
p1238
ssI368
(dp1239
g3
VTCCGAATG
p1240
sVsequence
p1241
VCATTCGGA
p1242
ssI369
(dp1243
g3
VATTGCCGT
p1244
sVsequence
p1245
VACGGCAAT
p1246
ssI370
(dp1247
g3
VCATGGTTA
p1248
sVsequence
p1249
VTAACCATG
p1250
ssI371
(dp1251
g3
VGTTGACAA
p1252
sVsequence
p1253
VTTGTCAAC
p1254
ssI372
(dp1255
g3
VTTCAACTG
p1256
sVsequence
p1257
VCAGTTGAA
p1258
ssI373
(dp1259
g3
VTAGCTTCT
p1260
sVsequence
p1261
VAGAAGCTA
p1262
ssI374
(dp1263
g3
VAGGATGCA
p1264
sVsequence
p1265
VTGCATCCT
p1266
ssI375
(dp1267
g3
VTCTCCAGT
p1268
sVsequence
p1269
VACTGGAGA
p1270
ssI376
(dp1271
g3
VAACTATGG
p1272
sVsequence
p1273
VCCATAGTT
p1274
ssI377
(dp1275
g3
VTAACTTAG
p1276
sVsequence
p1277
VCTAAGTTA
p1278
ssI378
(dp1279
g3
VAGGCTAAC
p1280
sVsequence
p1281
VGTTAGCCT
p1282
ssI379
(dp1283
g3
VCTCACGAA
p1284
sVsequence
p1285
VTTCGTGAG
p1286
ssI380
(dp1287
g3
VAAGAGACT
p1288
sVsequence
p1289
VAGTCTCTT
p1290
ssI381
(dp1291
g3
VGTATATCC
p1292
sVsequence
p1293
VGGATATAC
p1294
ssI382
(dp1295
g3
VAGCGTCTT
p1296
sVsequence
p1297
VAAGACGCT
p1298
ssI383
(dp1299
g3
VTCAGACAC
p1300
sVsequence
p1301
VGTGTCTGA
p1302
ssI384
(dp1303
g3
VTGCACTCT
p1304
sVsequence
p1305
VAGAGTGCA
p1306
ssV238
p1307
g885
sV239
p1308
g889
sV234
p1309
g869
sV235
p1310
g873
sV236
p1311
g877
sV237
p1312
g881
sV230
p1313
g853
sV231
p1314
g857
sV232
p1315
g861
sV233
p1316
g865
sS'1'
g2
sV146
p1317
(dp1318
g3
VACTTGTGG
p1319
sVsequence
p1320
VCCACAAGT
p1321
ssV147
p1322
(dp1323
g3
VTGATTAGC
p1324
sVsequence
p1325
VGCTAATCA
p1326
ssV144
p1327
(dp1328
g3
VCAGGTTAA
p1329
sVsequence
p1330
VTTAACCTG
p1331
ssV145
p1332
(dp1333
g3
VGGTGTCTA
p1334
sVsequence
p1335
VTAGACACC
p1336
ssV142
p1337
(dp1338
g3
VACAAGGAT
p1339
sVsequence
p1340
VATCCTTGT
p1341
ssV143
p1342
(dp1343
g3
VAGCATTAA
p1344
sVsequence
p1345
VTTAATGCT
p1346
ssV140
p1347
g431
sV141
p1348
(dp1349
g3
VCTCTAGAT
p1350
sVsequence
p1351
VATCTAGAG
p1352
ssV148
p1353
(dp1354
g3
VCTAGCAAC
p1355
sVsequence
p1356
VGTTGCTAG
p1357
ssV149
p1358
(dp1359
g3
VTAGCCAAC
p1360
sVsequence
p1361
VGTTGGCTA
p1362
ssI220
(dp1363
g3
VGCCTCTAT
p1364
sVsequence
p1365
VATAGAGGC
p1366
ssI84
(dp1367
g3
VTAATCACG
p1368
sVsequence
p1369
VCGTGATTA
p1370
ssV098
p1371
g375
sV099
p1372
g379
sI216
(dp1373
g3
VGTAACGCT
p1374
sVsequence
p1375
VAGCGTTAC
p1376
ssV090
p1377
g359
sV091
p1378
g363
sV092
p1379
g127
sV093
p1380
g102
sV094
p1381
g177
sV095
p1382
g152
sV096
p1383
g371
sV097
p1384
g1170
sV133
p1385
(dp1386
g3
VGTCGAATA
p1387
sVsequence
p1388
VTATTCGAC
p1389
ssV132
p1390
(dp1391
g3
VGCCAAGTT
p1392
sVsequence
p1393
VAACTTGGC
p1394
ssV131
p1395
g505
sV130
p1396
g501
sV137
p1397
(dp1398
g3
VTCGATCGT
p1399
sVsequence
p1400
VACGATCGA
p1401
ssV136
p1402
(dp1403
g3
VTCGTACCT
p1404
sVsequence
p1405
VAGGTACGA
p1406
ssV135
p1407
g523
sV134
p1408
g519
sV139
p1409
g335
sV138
p1410
(dp1411
g3
VAAGTTGCT
p1412
sVsequence
p1413
VAGCAACTT
p1414
ssS'24'
p1415
(dp1416
g3
VTCATGATC
p1417
sVsequence
p1418
VGATCATGA
p1419
ssS'25'
p1420
(dp1421
g3
VCGTTAGCA
p1422
sVsequence
p1423
VTGCTAACG
p1424
ssS'26'
p1425
g89
sS'27'
p1426
g93
sS'20'
p1427
(dp1428
g3
VTTAGTACA
p1429
sVsequence
p1430
VTGTACTAA
p1431
ssS'21'
p1432
(dp1433
g3
VGTGTAACT
p1434
sVsequence
p1435
VAGTTACAC
p1436
ssS'22'
p1437
(dp1438
g3
VTCGTGTAC
p1439
sVsequence
p1440
VGTACACGA
p1441
ssS'23'
p1442
(dp1443
g3
VCTTACAGT
p1444
sVsequence
p1445
VACTGTAAG
p1446
ssS'28'
p1447
g97
sS'29'
p1448
g701
sI94
g177
sI97
g1170
sV025
p1449
g1421
sV024
p1450
g1416
sV027
p1451
g93
sV026
p1452
g89
sV021
p1453
g1433
sV020
p1454
g1428
sV023
p1455
g1443
sV022
p1456
g1438
sV029
p1457
g701
sV028
p1458
g97
sI137
g1398
sI361
(dp1459
g3
VAGACTCTA
p1460
sVsequence
p1461
VTAGAGTCT
p1462
ssI103
g825
sV379
p1463
g1283
sV378
p1464
g1279
sV371
p1465
g1251
sV370
p1466
g1247
sV373
p1467
g1259
sV372
p1468
g1255
sV375
p1469
g1267
sV374
p1470
g1263
sV377
p1471
g1275
sV376
p1472
g1271
sI109
g803
sS'88'
p1473
g351
sS'89'
p1474
g355
sS'82'
p1475
g327
sS'83'
p1476
g331
sI22
g1438
sS'81'
p1477
g323
sS'86'
p1478
g343
sS'87'
p1479
g347
sS'84'
p1480
g1367
sS'85'
p1481
g339
sI114
(dp1482
g3
VATGACCAC
p1483
sVsequence
p1484
VGTGGTCAT
p1485
ssI115
(dp1486
g3
VGAAGACTG
p1487
sVsequence
p1488
VCAGTCTTC
p1489
ssS'7'
g27
sI23
g1443
sI118
(dp1490
g3
VTTAGATGC
p1491
sVsequence
p1492
VGCATCTAA
p1493
ssI119
(dp1494
g3
VTTAGGCAG
p1495
sVsequence
p1496
VCTGCCTAA
p1497
ssV245
p1498
g913
sV244
p1499
g909
sV247
p1500
g921
sV246
p1501
g917
sV241
p1502
g897
sV240
p1503
g893
sV243
p1504
g905
sV242
p1505
g901
sV249
p1506
g929
sV248
p1507
g925
sI123
(dp1508
g3
VGTTACAAC
p1509
sVsequence
p1510
VGTTGTAAC
p1511
ssI124
(dp1512
g3
VTTATTGTC
p1513
sVsequence
p1514
VGACAATAA
p1515
ssI125
(dp1516
g3
VGATGCCTT
p1517
sVsequence
p1518
VAAGGCATC
p1519
ssI25
g1421
sI126
(dp1520
g3
VCTAATAGA
p1521
sVsequence
p1522
VTCTATTAG
p1523
ssI127
(dp1524
g3
VTACGATCC
p1525
sVsequence
p1526
VGGATCGTA
p1527
ssV179
p1528
g717
sV178
p1529
g713
sV177
p1530
g709
sV176
p1531
g705
sV175
p1532
(dp1533
g3
VCTCTATGA
p1534
sVsequence
p1535
VTCATAGAG
p1536
ssV174
p1537
g697
sV173
p1538
g693
sV172
p1539
g689
sV171
p1540
g685
sV170
p1541
g681
sI281
(dp1542
g3
VGGAATTCA
p1543
sVsequence
p1544
VTGAATTCC
p1545
ssV182
p1546
g729
sV183
p1547
g733
sV180
p1548
g721
sV181
p1549
g725
sV186
p1550
g745
sV187
p1551
g749
sV184
p1552
g737
sV185
p1553
g741
sV188
p1554
g753
sV189
p1555
g757
sI138
g1411
sV061
p1556
g1235
sV060
p1557
g1211
sV063
p1558
g251
sV062
p1559
g247
sV065
p1560
g259
sV064
p1561
g255
sV067
p1562
g267
sV066
p1563
g263
sV069
p1564
g275
sV068
p1565
g271
sI141
g1349
sI142
g1338
sI143
g1343
sS'11'
p1566
g43
sS'10'
p1567
g39
sS'13'
p1568
g51
sS'12'
p1569
g47
sS'15'
p1570
g59
sS'14'
p1571
g55
sS'17'
p1572
g75
sS'16'
p1573
g70
sS'19'
p1574
g85
sS'18'
p1575
g80
sI146
g1318
sI147
g1323
sI148
g1354
sI149
g1359
sI150
(dp1576
g3
VCTCACATG
p1577
sVsequence
p1578
VCATGTGAG
p1579
ssS'62'
p1580
g247
sI151
(dp1581
g3
VACTTCGTT
p1582
sVsequence
p1583
VAACGAAGT
p1584
ssI282
(dp1585
g3
VCAAGCGAT
p1586
sVsequence
p1587
VATCGCTTG
p1588
ssI152
(dp1589
g3
VCCGATAAT
p1590
sVsequence
p1591
VATTATCGG
p1592
ssI153
(dp1593
g3
VTGCAATAC
p1594
sVsequence
p1595
VGTATTGCA
p1596
ssI155
(dp1597
g3
VAGCATGGT
p1598
sVsequence
p1599
VACCATGCT
p1600
ssI47
(dp1601
g3
VTTAACGTA
p1602
sVsequence
p1603
VTACGTTAA
p1604
ssV322
p1605
g1141
sV323
p1606
g1145
sV320
p1607
g1133
sV321
p1608
g1137
sV326
p1609
g1153
sV327
p1610
g1157
sV324
p1611
g1149
sV325
p1612
(dp1613
g3
VGTTATACA
p1614
sVsequence
p1615
VTGTATAAC
p1616
ssV328
p1617
g1161
sV329
p1618
g1165
sV201
p1619
g765
sV200
p1620
g761
sV203
p1621
g773
sV202
p1622
g769
sV205
p1623
g781
sV204
p1624
g777
sV207
p1625
g789
sV206
p1626
g785
sV209
p1627
g797
sV208
p1628
g793
sS'77'
p1629
g307
sS'76'
p1630
g303
sS'75'
p1631
g299
sS'74'
p1632
g295
sS'73'
p1633
g291
sS'72'
p1634
g287
sS'71'
p1635
g283
sI20
g1428
sS'79'
p1636
g315
sS'78'
p1637
g311
sS'2'
g7
sI175
g1533
sI35
(dp1638
g3
VCTAGTCTT
p1639
sVsequence
p1640
VAAGACTAG
p1641
ssS'8'
g31
sS'68'
p1642
g271
sV120
p1643
(dp1644
g3
VTCATTGAG
p1645
sVsequence
p1646
VCTCAATGA
p1647
ssV121
p1648
(dp1649
g3
VGTAATCGG
p1650
sVsequence
p1651
VCCGATTAC
p1652
ssV122
p1653
(dp1654
g3
VCTGAATTG
p1655
sVsequence
p1656
VCAATTCAG
p1657
ssV123
p1658
g1508
sV124
p1659
g1512
sV125
p1660
g1516
sV126
p1661
g1520
sV127
p1662
g1524
sV128
p1663
g493
sV129
p1664
g497
sS'69'
p1665
g275
sS'91'
p1666
g363
sI21
g1433
sS'90'
p1667
g359
sV319
p1668
(dp1669
g3
VTATGCGTG
p1670
sVsequence
p1671
VCACGCATA
p1672
ssV318
p1673
g1129
sV313
p1674
(dp1675
g3
VTGGAACAA
p1676
sVsequence
p1677
VTTGTTCCA
p1678
ssV312
p1679
g1109
sV311
p1680
g1105
sV310
p1681
g1101
sV317
p1682
g1125
sV316
p1683
g1121
sV315
p1684
g1117
sV314
p1685
g1113
sV038
p1686
g139
sV039
p1687
g143
sV032
p1688
g114
sV033
p1689
g118
sV030
p1690
g106
sV031
p1691
g110
sV036
p1692
g131
sV037
p1693
g135
sV034
p1694
g122
sV035
p1695
g1638
sS'3'
g11
sV368
p1696
g1239
sV369
p1697
g1243
sV366
p1698
g1231
sV367
p1699
g621
sV364
p1700
g1223
sV365
p1701
g1227
sV362
p1702
g1215
sV363
p1703
g1219
sV360
p1704
g1207
sV361
p1705
g1459
sV380
p1706
g1287
sV381
p1707
g1291
sV382
p1708
g1295
sV383
p1709
g1299
sV384
p1710
g1303
sI41
(dp1711
g3
VATGGCACA
p1712
sVsequence
p1713
VTGTGCCAT
p1714
ssI210
(dp1715
g3
VATTGTCAG
p1716
sVsequence
p1717
VCTGACAAT
p1718
ssI211
(dp1719
g3
VCTGTACCA
p1720
sVsequence
p1721
VTGGTACAG
p1722
ssS'60'
p1723
g1211
sS'61'
p1724
g1235
sV258
p1725
g965
sV259
p1726
g969
sS'64'
p1727
g255
sS'65'
p1728
g259
sS'66'
p1729
g263
sS'67'
p1730
g267
sV252
p1731
g941
sV253
p1732
g945
sV250
p1733
g933
sV251
p1734
g937
sV256
p1735
g957
sV257
p1736
g961
sV254
p1737
g949
sV255
p1738
g953
sI219
(dp1739
g3
VACTGCAAC
p1740
sVsequence
p1741
VGTTGCAGT
p1742
ssI145
g1333
sI221
(dp1743
g3
VCAGTCAAG
p1744
sVsequence
p1745
VCTTGACTG
p1746
ssI222
(dp1747
g3
VTCGAGGTT
p1748
sVsequence
p1749
VAACCTCGA
p1750
ssI223
(dp1751
g3
VTCGGTTGA
p1752
sVsequence
p1753
VTCAACCGA
p1754
ssI226
(dp1755
g3
VATCCATGT
p1756
sVsequence
p1757
VACATGGAT
p1758
ssI227
(dp1759
g3
VGCTGTCAT
p1760
sVsequence
p1761
VATGACAGC
p1762
ssV168
p1763
g673
sV169
p1764
g677
sV164
p1765
g657
sV165
p1766
g661
sV166
p1767
g665
sV167
p1768
g669
sV160
p1769
g641
sV161
p1770
g645
sV162
p1771
g649
sV163
p1772
g653
sI350
(dp1773
g3
VTACACCGT
p1774
sVsequence
p1775
VACGGTGTA
p1776
ssS'33'
p1777
g118
sS'32'
p1778
g114
sS'31'
p1779
g110
sV076
p1780
g303
sV077
p1781
g307
sV074
p1782
g295
sV075
p1783
g299
sV072
p1784
g287
sV073
p1785
g291
sV070
p1786
g279
sV071
p1787
g283
sS'37'
p1788
g135
sI132
g1391
sV078
p1789
g311
sV079
p1790
g315
sS'35'
p1791
g1638
sS'34'
p1792
g122
sI48
(dp1793
g3
VGACTACTT
p1794
sVsequence
p1795
VAAGTAGTC
p1796
ssI280
(dp1797
g3
VCTCCAGTA
p1798
sVsequence
p1799
VTACTGGAG
p1800
ssS'9'
g35
sI49
(dp1801
g3
VGATACGTC
p1802
sVsequence
p1803
VGACGTATC
p1804
ssV003
p1805
g11
sV002
p1806
g7
sV001
p1807
g2
sV007
p1808
g27
sV006
p1809
g23
sV005
p1810
g19
sV004
p1811
g15
sV009
p1812
g35
sV008
p1813
g31
sV357
p1814
g1195
sV356
p1815
g1191
sV355
p1816
g1187
sV354
p1817
g1183
sV353
p1818
g1179
sV352
p1819
g1175
sV351
p1820
g1089
sV350
p1821
g1773
sS'44'
p1822
g164
sV359
p1823
g1203
sV358
p1824
g1199
sV216
p1825
g1373
sV217
p1826
(dp1827
g3
VTGAGGTCA
p1828
sVsequence
p1829
VTGACCTCA
p1830
ssV214
p1831
g815
sV215
p1832
g819
sV212
p1833
g807
sV213
p1834
g811
sV210
p1835
g1715
sV211
p1836
g1719
sV218
p1837
(dp1838
g3
VGGCAACTA
p1839
sVsequence
p1840
VTAGTTGCC
p1841
ssV219
p1842
g1739
sI120
g1644
sI261
(dp1843
g3
VATCATGTA
p1844
sVsequence
p1845
VTACATGAT
p1846
ssI24
g1416
sV289
p1847
g1065
sV288
p1848
g1061
sS'4'
g15
sI121
g1649
sV281
p1849
g1542
sV280
p1850
g1797
sV283
p1851
(dp1852
g3
VCCAATTGC
p1853
sVsequence
p1854
VGCAATTGG
p1855
ssV282
p1856
g1585
sV285
p1857
(dp1858
g3
VCCAAGCTT
p1859
sVsequence
p1860
VAAGCTTGG
p1861
ssV284
p1862
(dp1863
g3
VACGCAGAT
p1864
sVsequence
p1865
VATCTGCGT
p1866
ssV287
p1867
(dp1868
g3
VGTTCTGTA
p1869
sVsequence
p1870
VTACAGAAC
p1871
ssV286
p1872
(dp1873
g3
VGGATTCTC
p1874
sVsequence
p1875
VGAGAATCC
p1876
ssI267
(dp1877
g3
VAGGAATCC
p1878
sVsequence
p1879
VGGATTCCT
p1880
ssI268
(dp1881
g3
VTGAATCGA
p1882
sVsequence
p1883
VTCGATTCA
p1884
ssI269
(dp1885
g3
VGTGTGCAA
p1886
sVsequence
p1887
VTTGCACAC
p1888
ssV263
p1889
g987
sV262
p1890
g983
sV261
p1891
g1843
sV260
p1892
(dp1893
g3
VCTACAAGT
p1894
sVsequence
p1895
VACTTGTAG
p1896
ssV267
p1897
g1877
sV266
p1898
(dp1899
g3
VAACGTAAC
p1900
sVsequence
p1901
VGTTACGTT
p1902
ssV265
p1903
(dp1904
g3
VCCGTAATG
p1905
sVsequence
p1906
VCATTACGG
p1907
ssV264
p1908
(dp1909
g3
VTAGATGCC
p1910
sVsequence
p1911
VGGCATCTA
p1912
ssV269
p1913
g1885
sV268
p1914
g1881
sS'59'
p1915
g233
sS'58'
p1916
g229
sS'55'
p1917
g367
sS'54'
p1918
g1034
sS'57'
p1919
g225
sS'56'
p1920
g221
sS'51'
p1921
g1047
sS'50'
p1922
g1042
sS'53'
p1923
g1057
sS'52'
p1924
g1052
sS'63'
p1925
g251
sI276
g598
sI313
g1675
sI277
g603
sI260
g1893
sS'30'
p1926
g106
sV115
p1927
g1486
sV114
p1928
g1482
sV117
p1929
g439
sV116
p1930
g435
sV111
p1931
g419
sV110
p1932
g415
sV113
p1933
g427
sV112
p1934
g423
sV119
p1935
g1494
sV118
p1936
g1490
sI283
g1852
sI284
g1863
sI285
g1858
sI286
g1873
sI287
g1868
sV308
p1937
g1093
sV309
p1938
g1097
sV300
p1939
g1069
sV301
p1940
(dp1941
g3
VTAACACGT
p1942
sVsequence
p1943
VACGTGTTA
p1944
ssV302
p1945
g1073
sV303
p1946
g1077
sV304
p1947
g1081
sV305
p1948
g1085
sV306
p1949
(dp1950
g3
VAGATCGCA
p1951
sVsequence
p1952
VTGCGATCT
p1953
ssV307
p1954
(dp1955
g3
VCTTCGTCA
p1956
sVsequence
p1957
VTGACGAAG
p1958
ssV049
p1959
g1801
sV048
p1960
g1793
sV047
p1961
g1601
sV046
p1962
g172
sV045
p1963
g168
sV044
p1964
g164
sV043
p1965
g160
sV042
p1966
g156
sV041
p1967
g1711
sV040
p1968
g147
sI144
g1328
sI264
g1909
sS'70'
p1969
g279
sI301
g1941
sI265
g1904
sI306
g1950
sI307
g1955
sI266
g1899
sS'6'
g23
sV229
p1970
g849
sV228
p1971
g845
sV227
p1972
g1759
sV226
p1973
g1755
sV225
p1974
g839
sV224
p1975
g835
sV223
p1976
g1751
sV222
p1977
g1747
sV221
p1978
g1743
sV220
p1979
g1363
sI217
g1827
sI319
g1669
sV151
p1980
g1581
sV150
p1981
g1576
sV153
p1982
g1593
sV152
p1983
g1589
sV155
p1984
g1597
sV154
p1985
g617
sV157
p1986
g629
sV156
p1987
g625
sV159
p1988
g637
sV158
p1989
g633
sS'80'
p1990
g319
sI325
g1613
sI133
g1386
sS'48'
p1991
g1793
sS'49'
p1992
g1801
sS'46'
p1993
g172
sS'47'
p1994
g1601
sI122
g1654
sS'45'
p1995
g168
sS'42'
p1996
g156
sS'43'
p1997
g160
sS'40'
p1998
g147
sS'41'
p1999
g1711
sI270
g568
sS'5'
g19
sS'36'
p2000
g131
sV089
p2001
g355
sV088
p2002
g351
sV083
p2003
g331
sV082
p2004
g327
sV081
p2005
g323
sV080
p2006
g319
sV087
p2007
g347
sV086
p2008
g343
sV085
p2009
g339
sV084
p2010
g1367
sI271
g573
sS'99'
p2011
g379
sS'98'
p2012
g375
sI218
g1838
sI136
g1403
s.